target datalayout = "e-m:e-p270:32:32-p271:32:32-p272:64:64-i64:64-i128:128-f80:128-n8:16:32:64-S128"
target triple = "x86_64-pc-linux-gnu"

%struct.ident_t = type { i32, i32, i32, i32, ptr }

@1 = private unnamed_addr constant %struct.ident_t { i32 0, i32 514, i32 0, i32 22, ptr @0 }, align 8

; Function Attrs: alwaysinline norecurse nounwind uwtable
define internal void @_ZNK4ncnn3GLU7forwardERKNS_3MatERS1_RKNS_6OptionE.omp_outlined(ptr noalias noundef %0, ptr noalias noundef %1, ptr noundef nonnull align 4 dereferenceable(4) %2, ptr noundef nonnull align 8 dereferenceable(8) %3, ptr noundef nonnull align 8 dereferenceable(8) %4) #6 {
  %6 = alloca ptr, align 8
  %7 = alloca ptr, align 8
  %8 = alloca ptr, align 8
  %9 = alloca ptr, align 8
  %10 = alloca ptr, align 8
  %11 = alloca i32, align 4
  %12 = alloca i32, align 4
  %13 = alloca i32, align 4
  %14 = alloca i32, align 4
  %15 = alloca i32, align 4
  %16 = alloca i32, align 4
  %17 = alloca i32, align 4
  %18 = alloca i32, align 4
  %19 = alloca i32, align 4
  %20 = alloca float, align 4
  store ptr %0, ptr %6, align 8, !tbaa !51
  store ptr %1, ptr %7, align 8, !tbaa !51
  store ptr %2, ptr %8, align 8, !tbaa !51
  store ptr %3, ptr %9, align 8, !tbaa !52
  store ptr %4, ptr %10, align 8, !tbaa !52
  %21 = load ptr, ptr %8, align 8, !tbaa !51
  %22 = load ptr, ptr %9, align 8, !tbaa !52
  %23 = load ptr, ptr %10, align 8, !tbaa !52
  call void @llvm.lifetime.start.p0(i64 4, ptr %11) #7
  call void @llvm.lifetime.start.p0(i64 4, ptr %12) #7
  %24 = load i32, ptr %21, align 4, !tbaa !36
  store i32 %24, ptr %12, align 4, !tbaa !36
  call void @llvm.lifetime.start.p0(i64 4, ptr %13) #7
  %25 = load i32, ptr %12, align 4, !tbaa !36
  %26 = sub nsw i32 %25, 0
  %27 = sdiv i32 %26, 1
  %28 = sub nsw i32 %27, 1
  store i32 %28, ptr %13, align 4, !tbaa !36
  call void @llvm.lifetime.start.p0(i64 4, ptr %14) #7
  store i32 0, ptr %14, align 4, !tbaa !36
  call void @llvm.lifetime.end.p0(i64 4, ptr %14) #7
  %29 = load i32, ptr %12, align 4, !tbaa !36
  %30 = icmp slt i32 0, %29
  br i1 %30, label %31, label %84

31:                                               ; preds = %5
  call void @llvm.lifetime.start.p0(i64 4, ptr %15) #7
  store i32 0, ptr %15, align 4, !tbaa !36
  call void @llvm.lifetime.start.p0(i64 4, ptr %16) #7
  %32 = load i32, ptr %13, align 4, !tbaa !36
  store i32 %32, ptr %16, align 4, !tbaa !36
  call void @llvm.lifetime.start.p0(i64 4, ptr %17) #7
  store i32 1, ptr %17, align 4, !tbaa !36
  call void @llvm.lifetime.start.p0(i64 4, ptr %18) #7
  store i32 0, ptr %18, align 4, !tbaa !36
  call void @llvm.lifetime.start.p0(i64 4, ptr %19) #7
  %33 = load ptr, ptr %6, align 8
  %34 = load i32, ptr %33, align 4, !tbaa !36
  call void @__kmpc_for_static_init_4(ptr @1, i32 %34, i32 34, ptr %18, ptr %15, ptr %16, ptr %17, i32 1, i32 1)
  %35 = load i32, ptr %16, align 4, !tbaa !36
  %36 = load i32, ptr %13, align 4, !tbaa !36
  %37 = icmp sgt i32 %35, %36
  br i1 %37, label %38, label %40

38:                                               ; preds = %31
  %39 = load i32, ptr %13, align 4, !tbaa !36
  br label %42

40:                                               ; preds = %31
  %41 = load i32, ptr %16, align 4, !tbaa !36
  br label %42

42:                                               ; preds = %40, %38
  %43 = phi i32 [ %39, %38 ], [ %41, %40 ]
  store i32 %43, ptr %16, align 4, !tbaa !36
  %44 = load i32, ptr %15, align 4, !tbaa !36
  store i32 %44, ptr %11, align 4, !tbaa !36
  br label %45

45:                                               ; preds = %77, %42
  %46 = load i32, ptr %11, align 4, !tbaa !36
  %47 = load i32, ptr %16, align 4, !tbaa !36
  %48 = icmp sle i32 %46, %47
  br i1 %48, label %50, label %49

49:                                               ; preds = %45
  br label %80

50:                                               ; preds = %45
  %51 = load i32, ptr %11, align 4, !tbaa !36
  %52 = mul nsw i32 %51, 1
  %53 = add nsw i32 0, %52
  store i32 %53, ptr %19, align 4, !tbaa !36
  call void @llvm.lifetime.start.p0(i64 4, ptr %20) #7
  %54 = load ptr, ptr %22, align 8, !tbaa !40
  %55 = load i32, ptr %19, align 4, !tbaa !36
  %56 = load i32, ptr %21, align 4, !tbaa !36
  %57 = add nsw i32 %55, %56
  %58 = sext i32 %57 to i64
  %59 = getelementptr inbounds float, ptr %54, i64 %58
  %60 = load float, ptr %59, align 4, !tbaa !55
  %61 = fneg fast float %60
  %62 = call fast float @llvm.exp.f32(float %61)
  %63 = fadd fast float 1.000000e+00, %62
  %64 = fdiv fast float 1.000000e+00, %63
  store float %64, ptr %20, align 4, !tbaa !55
  %65 = load ptr, ptr %22, align 8, !tbaa !40
  %66 = load i32, ptr %19, align 4, !tbaa !36
  %67 = sext i32 %66 to i64
  %68 = getelementptr inbounds float, ptr %65, i64 %67
  %69 = load float, ptr %68, align 4, !tbaa !55
  %70 = load float, ptr %20, align 4, !tbaa !55
  %71 = fmul fast float %69, %70
  %72 = load ptr, ptr %23, align 8, !tbaa !40
  %73 = load i32, ptr %19, align 4, !tbaa !36
  %74 = sext i32 %73 to i64
  %75 = getelementptr inbounds float, ptr %72, i64 %74
  store float %71, ptr %75, align 4, !tbaa !55
  call void @llvm.lifetime.end.p0(i64 4, ptr %20) #7
  br label %76

76:                                               ; preds = %50
  br label %77

77:                                               ; preds = %76
  %78 = load i32, ptr %11, align 4, !tbaa !36
  %79 = add nsw i32 %78, 1
  store i32 %79, ptr %11, align 4, !tbaa !36
  br label %45

80:                                               ; preds = %49
  br label %81

81:                                               ; preds = %80
  %82 = load ptr, ptr %6, align 8
  %83 = load i32, ptr %82, align 4, !tbaa !36
  call void @__kmpc_for_static_fini(ptr @1, i32 %83)
  call void @llvm.lifetime.end.p0(i64 4, ptr %19) #7
  call void @llvm.lifetime.end.p0(i64 4, ptr %18) #7
  call void @llvm.lifetime.end.p0(i64 4, ptr %17) #7
  call void @llvm.lifetime.end.p0(i64 4, ptr %16) #7
  call void @llvm.lifetime.end.p0(i64 4, ptr %15) #7
  br label %84

84:                                               ; preds = %81, %5
  call void @llvm.lifetime.end.p0(i64 4, ptr %13) #7
  call void @llvm.lifetime.end.p0(i64 4, ptr %12) #7
  call void @llvm.lifetime.end.p0(i64 4, ptr %11) #7
  ret void
}