; Function Attrs: alwaysinline norecurse nounwind uwtable
define internal void @_ZNK4ncnn3GLU7forwardERKNS_3MatERS1_RKNS_6OptionE.omp_outlined(ptr noalias noundef readonly captures(none) %0, ptr noalias readnone captures(none) %1, ptr noundef nonnull readonly align 4 captures(none) dereferenceable(4) %2, ptr noundef nonnull readonly align 8 captures(none) dereferenceable(8) %3, ptr noundef nonnull readonly align 8 captures(none) dereferenceable(8) %4) #5 {
  %6 = alloca i32, align 4
  %7 = alloca i32, align 4
  %8 = alloca i32, align 4
  %9 = alloca i32, align 4
  %10 = load i32, ptr %2, align 4, !tbaa !30
  %11 = icmp sgt i32 %10, 0
  br i1 %11, label %12, label %33

12:                                               ; preds = %5
  %13 = add nsw i32 %10, -1
  call void @llvm.lifetime.start.p0(i64 4, ptr nonnull %6) #6
  store i32 0, ptr %6, align 4, !tbaa !30
  call void @llvm.lifetime.start.p0(i64 4, ptr nonnull %7) #6
  store i32 %13, ptr %7, align 4, !tbaa !30
  call void @llvm.lifetime.start.p0(i64 4, ptr nonnull %8) #6
  store i32 1, ptr %8, align 4, !tbaa !30
  call void @llvm.lifetime.start.p0(i64 4, ptr nonnull %9) #6
  store i32 0, ptr %9, align 4, !tbaa !30
  %14 = load i32, ptr %0, align 4, !tbaa !30
  call void @__kmpc_for_static_init_4(ptr nonnull @1, i32 %14, i32 34, ptr nonnull %9, ptr nonnull %6, ptr nonnull %7, ptr nonnull %8, i32 1, i32 1)
  %15 = load i32, ptr %7, align 4, !tbaa !30
  %16 = call i32 @llvm.smin.i32(i32 %15, i32 %13)
  store i32 %16, ptr %7, align 4, !tbaa !30
  %17 = load i32, ptr %6, align 4, !tbaa !30
  %.not16 = icmp sgt i32 %17, %16
  br i1 %.not16, label %._crit_edge, label %.lr.ph

.lr.ph:                                           ; preds = %12
  %18 = load ptr, ptr %3, align 8, !tbaa !34
  %19 = load i32, ptr %2, align 4, !tbaa !30
  %20 = load ptr, ptr %4, align 8, !tbaa !34
  %21 = sext i32 %17 to i64
  %22 = sext i32 %19 to i64
  %23 = add nsw i32 %16, 1
  %invariant.gep = getelementptr float, ptr %18, i64 %22
  br label %24

24:                                               ; preds = %.lr.ph, %24
  %indvars.iv = phi i64 [ %21, %.lr.ph ], [ %indvars.iv.next, %24 ]
  %gep = getelementptr float, ptr %invariant.gep, i64 %indvars.iv
  %25 = load float, ptr %gep, align 4, !tbaa !44
  %26 = fneg fast float %25
  %27 = call fast float @llvm.exp.f32(float %26)
  %28 = fadd fast float %27, 1.000000e+00
  %29 = getelementptr inbounds float, ptr %18, i64 %indvars.iv
  %30 = load float, ptr %29, align 4, !tbaa !44
  %31 = fdiv fast float %30, %28
  %32 = getelementptr inbounds float, ptr %20, i64 %indvars.iv
  store float %31, ptr %32, align 4, !tbaa !44
  %indvars.iv.next = add nsw i64 %indvars.iv, 1
  %lftr.wideiv = trunc i64 %indvars.iv.next to i32
  %exitcond.not = icmp eq i32 %23, %lftr.wideiv
  br i1 %exitcond.not, label %._crit_edge, label %24

._crit_edge:                                      ; preds = %24, %12
  call void @__kmpc_for_static_fini(ptr nonnull @1, i32 %14)
  call void @llvm.lifetime.end.p0(i64 4, ptr nonnull %9) #6
  call void @llvm.lifetime.end.p0(i64 4, ptr nonnull %8) #6
  call void @llvm.lifetime.end.p0(i64 4, ptr nonnull %7) #6
  call void @llvm.lifetime.end.p0(i64 4, ptr nonnull %6) #6
  br label %33

33:                                               ; preds = %._crit_edge, %5
  ret void
}